target datalayout = "e-m:e-p270:32:32-p271:32:32-p272:64:64-i64:64-i128:128-f80:128-n8:16:32:64-S128"
target triple = "x86_64-pc-linux-gnu"

%struct.VLCElem = type { %union.anon.1 }
%union.anon.1 = type { %struct.anon }
%struct.anon = type { i16, i16 }
%struct.GetBitContext = type { ptr, ptr, i32, i32, i32 }

@cbp_tab = internal global [512 x %struct.VLCElem] zeroinitializer, align 16

; Function Attrs: alwaysinline nounwind willreturn memory(none) uwtable
define internal i32 @av_bswap32(i32 noundef %0) #5 {
  %2 = alloca i32, align 4
  store i32 %0, ptr %2, align 4, !tbaa !47
  %3 = load i32, ptr %2, align 4, !tbaa !47
  %4 = shl i32 %3, 8
  %5 = and i32 %4, 65280
  %6 = load i32, ptr %2, align 4, !tbaa !47
  %7 = lshr i32 %6, 8
  %8 = and i32 %7, 255
  %9 = or i32 %5, %8
  %10 = shl i32 %9, 16
  %11 = load i32, ptr %2, align 4, !tbaa !47
  %12 = lshr i32 %11, 16
  %13 = shl i32 %12, 8
  %14 = and i32 %13, 65280
  %15 = load i32, ptr %2, align 4, !tbaa !47
  %16 = lshr i32 %15, 16
  %17 = lshr i32 %16, 8
  %18 = and i32 %17, 255
  %19 = or i32 %14, %18
  %20 = or i32 %10, %19
  ret i32 %20
}

; Function Attrs: inlinehint nounwind uwtable
define internal i32 @get_bits1(ptr noundef %0) #4 {
  %2 = alloca ptr, align 8
  %3 = alloca i32, align 4
  %4 = alloca i8, align 1
  store ptr %0, ptr %2, align 8, !tbaa !42
  call void @llvm.lifetime.start.p0(i64 4, ptr %3) #11
  %5 = load ptr, ptr %2, align 8, !tbaa !42
  %6 = getelementptr inbounds nuw %struct.GetBitContext, ptr %5, i32 0, i32 2
  %7 = load i32, ptr %6, align 8, !tbaa !61
  store i32 %7, ptr %3, align 4, !tbaa !47
  call void @llvm.lifetime.start.p0(i64 1, ptr %4) #11
  %8 = load ptr, ptr %2, align 8, !tbaa !42
  %9 = getelementptr inbounds nuw %struct.GetBitContext, ptr %8, i32 0, i32 0
  %10 = load ptr, ptr %9, align 8, !tbaa !63
  %11 = load i32, ptr %3, align 4, !tbaa !47
  %12 = lshr i32 %11, 3
  %13 = zext i32 %12 to i64
  %14 = getelementptr inbounds nuw i8, ptr %10, i64 %13
  %15 = load i8, ptr %14, align 1, !tbaa !64
  store i8 %15, ptr %4, align 1, !tbaa !64
  %16 = load i32, ptr %3, align 4, !tbaa !47
  %17 = and i32 %16, 7
  %18 = load i8, ptr %4, align 1, !tbaa !64
  %19 = zext i8 %18 to i32
  %20 = shl i32 %19, %17
  %21 = trunc i32 %20 to i8
  store i8 %21, ptr %4, align 1, !tbaa !64
  %22 = load i8, ptr %4, align 1, !tbaa !64
  %23 = zext i8 %22 to i32
  %24 = ashr i32 %23, 7
  %25 = trunc i32 %24 to i8
  store i8 %25, ptr %4, align 1, !tbaa !64
  %26 = load ptr, ptr %2, align 8, !tbaa !42
  %27 = getelementptr inbounds nuw %struct.GetBitContext, ptr %26, i32 0, i32 2
  %28 = load i32, ptr %27, align 8, !tbaa !61
  %29 = load ptr, ptr %2, align 8, !tbaa !42
  %30 = getelementptr inbounds nuw %struct.GetBitContext, ptr %29, i32 0, i32 4
  %31 = load i32, ptr %30, align 8, !tbaa !62
  %32 = icmp slt i32 %28, %31
  br i1 %32, label %33, label %36

33:                                               ; preds = %1
  %34 = load i32, ptr %3, align 4, !tbaa !47
  %35 = add i32 %34, 1
  store i32 %35, ptr %3, align 4, !tbaa !47
  br label %36

36:                                               ; preds = %33, %1
  %37 = load i32, ptr %3, align 4, !tbaa !47
  %38 = load ptr, ptr %2, align 8, !tbaa !42
  %39 = getelementptr inbounds nuw %struct.GetBitContext, ptr %38, i32 0, i32 2
  store i32 %37, ptr %39, align 8, !tbaa !61
  %40 = load i8, ptr %4, align 1, !tbaa !64
  %41 = zext i8 %40 to i32
  call void @llvm.lifetime.end.p0(i64 1, ptr %4) #11
  call void @llvm.lifetime.end.p0(i64 4, ptr %3) #11
  ret i32 %41
}

; Function Attrs: inlinehint nounwind uwtable
define internal i32 @get_bits(ptr noundef %0, i32 noundef %1) #4 {
  %3 = alloca ptr, align 8
  %4 = alloca i32, align 4
  %5 = alloca i32, align 4
  %6 = alloca i32, align 4
  %7 = alloca i32, align 4
  %8 = alloca i32, align 4
  store ptr %0, ptr %3, align 8, !tbaa !42
  store i32 %1, ptr %4, align 4, !tbaa !47
  call void @llvm.lifetime.start.p0(i64 4, ptr %5) #11
  call void @llvm.lifetime.start.p0(i64 4, ptr %6) #11
  %9 = load ptr, ptr %3, align 8, !tbaa !42
  %10 = getelementptr inbounds nuw %struct.GetBitContext, ptr %9, i32 0, i32 2
  %11 = load i32, ptr %10, align 8, !tbaa !61
  store i32 %11, ptr %6, align 4, !tbaa !47
  call void @llvm.lifetime.start.p0(i64 4, ptr %7) #11
  call void @llvm.lifetime.start.p0(i64 4, ptr %8) #11
  %12 = load ptr, ptr %3, align 8, !tbaa !42
  %13 = getelementptr inbounds nuw %struct.GetBitContext, ptr %12, i32 0, i32 4
  %14 = load i32, ptr %13, align 8, !tbaa !62
  store i32 %14, ptr %8, align 4, !tbaa !47
  %15 = load ptr, ptr %3, align 8, !tbaa !42
  %16 = getelementptr inbounds nuw %struct.GetBitContext, ptr %15, i32 0, i32 0
  %17 = load ptr, ptr %16, align 8, !tbaa !63
  %18 = load i32, ptr %6, align 4, !tbaa !47
  %19 = lshr i32 %18, 3
  %20 = zext i32 %19 to i64
  %21 = getelementptr inbounds nuw i8, ptr %17, i64 %20
  %22 = load i32, ptr %21, align 1, !tbaa !64
  %23 = call i32 @av_bswap32(i32 noundef %22) #12
  %24 = load i32, ptr %6, align 4, !tbaa !47
  %25 = and i32 %24, 7
  %26 = shl i32 %23, %25
  %27 = lshr i32 %26, 0
  store i32 %27, ptr %7, align 4, !tbaa !47
  %28 = load i32, ptr %7, align 4, !tbaa !47
  %29 = load i32, ptr %4, align 4, !tbaa !47
  %30 = sub nsw i32 32, %29
  %31 = lshr i32 %28, %30
  store i32 %31, ptr %5, align 4, !tbaa !47
  %32 = load i32, ptr %8, align 4, !tbaa !47
  %33 = load i32, ptr %6, align 4, !tbaa !47
  %34 = load i32, ptr %4, align 4, !tbaa !47
  %35 = add i32 %33, %34
  %36 = icmp ugt i32 %32, %35
  br i1 %36, label %37, label %41

37:                                               ; preds = %2
  %38 = load i32, ptr %6, align 4, !tbaa !47
  %39 = load i32, ptr %4, align 4, !tbaa !47
  %40 = add i32 %38, %39
  br label %43

41:                                               ; preds = %2
  %42 = load i32, ptr %8, align 4, !tbaa !47
  br label %43

43:                                               ; preds = %41, %37
  %44 = phi i32 [ %40, %37 ], [ %42, %41 ]
  store i32 %44, ptr %6, align 4, !tbaa !47
  %45 = load i32, ptr %6, align 4, !tbaa !47
  %46 = load ptr, ptr %3, align 8, !tbaa !42
  %47 = getelementptr inbounds nuw %struct.GetBitContext, ptr %46, i32 0, i32 2
  store i32 %45, ptr %47, align 8, !tbaa !61
  %48 = load i32, ptr %5, align 4, !tbaa !47
  call void @llvm.lifetime.end.p0(i64 4, ptr %8) #11
  call void @llvm.lifetime.end.p0(i64 4, ptr %7) #11
  call void @llvm.lifetime.end.p0(i64 4, ptr %6) #11
  call void @llvm.lifetime.end.p0(i64 4, ptr %5) #11
  ret i32 %48
}

; Function Attrs: alwaysinline nounwind uwtable
define internal i32 @get_vlc2(ptr noundef %0, ptr noundef %1, i32 noundef %2, i32 noundef %3) #9 {
  %5 = alloca ptr, align 8
  %6 = alloca ptr, align 8
  %7 = alloca i32, align 4
  %8 = alloca i32, align 4
  %9 = alloca i32, align 4
  %10 = alloca i32, align 4
  %11 = alloca i32, align 4
  %12 = alloca i32, align 4
  %13 = alloca i32, align 4
  %14 = alloca i32, align 4
  %15 = alloca i32, align 4
  store ptr %0, ptr %5, align 8, !tbaa !42
  store ptr %1, ptr %6, align 8, !tbaa !94
  store i32 %2, ptr %7, align 4, !tbaa !47
  store i32 %3, ptr %8, align 4, !tbaa !47
  call void @llvm.lifetime.start.p0(i64 4, ptr %9) #11
  call void @llvm.lifetime.start.p0(i64 4, ptr %10) #11
  %16 = load ptr, ptr %5, align 8, !tbaa !42
  %17 = getelementptr inbounds nuw %struct.GetBitContext, ptr %16, i32 0, i32 2
  %18 = load i32, ptr %17, align 8, !tbaa !61
  store i32 %18, ptr %10, align 4, !tbaa !47
  call void @llvm.lifetime.start.p0(i64 4, ptr %11) #11
  call void @llvm.lifetime.start.p0(i64 4, ptr %12) #11
  %19 = load ptr, ptr %5, align 8, !tbaa !42
  %20 = getelementptr inbounds nuw %struct.GetBitContext, ptr %19, i32 0, i32 4
  %21 = load i32, ptr %20, align 8, !tbaa !62
  store i32 %21, ptr %12, align 4, !tbaa !47
  %22 = load ptr, ptr %5, align 8, !tbaa !42
  %23 = getelementptr inbounds nuw %struct.GetBitContext, ptr %22, i32 0, i32 0
  %24 = load ptr, ptr %23, align 8, !tbaa !63
  %25 = load i32, ptr %10, align 4, !tbaa !47
  %26 = lshr i32 %25, 3
  %27 = zext i32 %26 to i64
  %28 = getelementptr inbounds nuw i8, ptr %24, i64 %27
  %29 = load i32, ptr %28, align 1, !tbaa !64
  %30 = call i32 @av_bswap32(i32 noundef %29) #12
  %31 = load i32, ptr %10, align 4, !tbaa !47
  %32 = and i32 %31, 7
  %33 = shl i32 %30, %32
  %34 = lshr i32 %33, 0
  store i32 %34, ptr %11, align 4, !tbaa !47
  br label %35

35:                                               ; preds = %4
  call void @llvm.lifetime.start.p0(i64 4, ptr %13) #11
  call void @llvm.lifetime.start.p0(i64 4, ptr %14) #11
  call void @llvm.lifetime.start.p0(i64 4, ptr %15) #11
  %36 = load i32, ptr %11, align 4, !tbaa !47
  %37 = load i32, ptr %7, align 4, !tbaa !47
  %38 = sub nsw i32 32, %37
  %39 = lshr i32 %36, %38
  store i32 %39, ptr %15, align 4, !tbaa !47
  %40 = load ptr, ptr %6, align 8, !tbaa !94
  %41 = load i32, ptr %15, align 4, !tbaa !47
  %42 = zext i32 %41 to i64
  %43 = getelementptr inbounds nuw %struct.VLCElem, ptr %40, i64 %42
  %44 = getelementptr inbounds nuw %struct.VLCElem, ptr %43, i32 0, i32 0
  %45 = getelementptr inbounds nuw %struct.anon, ptr %44, i32 0, i32 0
  %46 = load i16, ptr %45, align 2, !tbaa !64
  %47 = sext i16 %46 to i32
  store i32 %47, ptr %9, align 4, !tbaa !47
  %48 = load ptr, ptr %6, align 8, !tbaa !94
  %49 = load i32, ptr %15, align 4, !tbaa !47
  %50 = zext i32 %49 to i64
  %51 = getelementptr inbounds nuw %struct.VLCElem, ptr %48, i64 %50
  %52 = getelementptr inbounds nuw %struct.VLCElem, ptr %51, i32 0, i32 0
  %53 = getelementptr inbounds nuw %struct.anon, ptr %52, i32 0, i32 1
  %54 = load i16, ptr %53, align 2, !tbaa !64
  %55 = sext i16 %54 to i32
  store i32 %55, ptr %13, align 4, !tbaa !47
  %56 = load i32, ptr %8, align 4, !tbaa !47
  %57 = icmp sgt i32 %56, 1
  br i1 %57, label %58, label %169

58:                                               ; preds = %35
  %59 = load i32, ptr %13, align 4, !tbaa !47
  %60 = icmp slt i32 %59, 0
  br i1 %60, label %61, label %169

61:                                               ; preds = %58
  %62 = load i32, ptr %12, align 4, !tbaa !47
  %63 = load i32, ptr %10, align 4, !tbaa !47
  %64 = load i32, ptr %7, align 4, !tbaa !47
  %65 = add i32 %63, %64
  %66 = icmp ugt i32 %62, %65
  br i1 %66, label %67, label %71

67:                                               ; preds = %61
  %68 = load i32, ptr %10, align 4, !tbaa !47
  %69 = load i32, ptr %7, align 4, !tbaa !47
  %70 = add i32 %68, %69
  br label %73

71:                                               ; preds = %61
  %72 = load i32, ptr %12, align 4, !tbaa !47
  br label %73

73:                                               ; preds = %71, %67
  %74 = phi i32 [ %70, %67 ], [ %72, %71 ]
  store i32 %74, ptr %10, align 4, !tbaa !47
  %75 = load ptr, ptr %5, align 8, !tbaa !42
  %76 = getelementptr inbounds nuw %struct.GetBitContext, ptr %75, i32 0, i32 0
  %77 = load ptr, ptr %76, align 8, !tbaa !63
  %78 = load i32, ptr %10, align 4, !tbaa !47
  %79 = lshr i32 %78, 3
  %80 = zext i32 %79 to i64
  %81 = getelementptr inbounds nuw i8, ptr %77, i64 %80
  %82 = load i32, ptr %81, align 1, !tbaa !64
  %83 = call i32 @av_bswap32(i32 noundef %82) #12
  %84 = load i32, ptr %10, align 4, !tbaa !47
  %85 = and i32 %84, 7
  %86 = shl i32 %83, %85
  %87 = lshr i32 %86, 0
  store i32 %87, ptr %11, align 4, !tbaa !47
  %88 = load i32, ptr %13, align 4, !tbaa !47
  %89 = sub nsw i32 0, %88
  store i32 %89, ptr %14, align 4, !tbaa !47
  %90 = load i32, ptr %11, align 4, !tbaa !47
  %91 = load i32, ptr %14, align 4, !tbaa !47
  %92 = sub nsw i32 32, %91
  %93 = lshr i32 %90, %92
  %94 = load i32, ptr %9, align 4, !tbaa !47
  %95 = add i32 %93, %94
  store i32 %95, ptr %15, align 4, !tbaa !47
  %96 = load ptr, ptr %6, align 8, !tbaa !94
  %97 = load i32, ptr %15, align 4, !tbaa !47
  %98 = zext i32 %97 to i64
  %99 = getelementptr inbounds nuw %struct.VLCElem, ptr %96, i64 %98
  %100 = getelementptr inbounds nuw %struct.VLCElem, ptr %99, i32 0, i32 0
  %101 = getelementptr inbounds nuw %struct.anon, ptr %100, i32 0, i32 0
  %102 = load i16, ptr %101, align 2, !tbaa !64
  %103 = sext i16 %102 to i32
  store i32 %103, ptr %9, align 4, !tbaa !47
  %104 = load ptr, ptr %6, align 8, !tbaa !94
  %105 = load i32, ptr %15, align 4, !tbaa !47
  %106 = zext i32 %105 to i64
  %107 = getelementptr inbounds nuw %struct.VLCElem, ptr %104, i64 %106
  %108 = getelementptr inbounds nuw %struct.VLCElem, ptr %107, i32 0, i32 0
  %109 = getelementptr inbounds nuw %struct.anon, ptr %108, i32 0, i32 1
  %110 = load i16, ptr %109, align 2, !tbaa !64
  %111 = sext i16 %110 to i32
  store i32 %111, ptr %13, align 4, !tbaa !47
  %112 = load i32, ptr %8, align 4, !tbaa !47
  %113 = icmp sgt i32 %112, 2
  br i1 %113, label %114, label %168

114:                                              ; preds = %73
  %115 = load i32, ptr %13, align 4, !tbaa !47
  %116 = icmp slt i32 %115, 0
  br i1 %116, label %117, label %168

117:                                              ; preds = %114
  %118 = load i32, ptr %12, align 4, !tbaa !47
  %119 = load i32, ptr %10, align 4, !tbaa !47
  %120 = load i32, ptr %14, align 4, !tbaa !47
  %121 = add i32 %119, %120
  %122 = icmp ugt i32 %118, %121
  br i1 %122, label %123, label %127

123:                                              ; preds = %117
  %124 = load i32, ptr %10, align 4, !tbaa !47
  %125 = load i32, ptr %14, align 4, !tbaa !47
  %126 = add i32 %124, %125
  br label %129

127:                                              ; preds = %117
  %128 = load i32, ptr %12, align 4, !tbaa !47
  br label %129

129:                                              ; preds = %127, %123
  %130 = phi i32 [ %126, %123 ], [ %128, %127 ]
  store i32 %130, ptr %10, align 4, !tbaa !47
  %131 = load ptr, ptr %5, align 8, !tbaa !42
  %132 = getelementptr inbounds nuw %struct.GetBitContext, ptr %131, i32 0, i32 0
  %133 = load ptr, ptr %132, align 8, !tbaa !63
  %134 = load i32, ptr %10, align 4, !tbaa !47
  %135 = lshr i32 %134, 3
  %136 = zext i32 %135 to i64
  %137 = getelementptr inbounds nuw i8, ptr %133, i64 %136
  %138 = load i32, ptr %137, align 1, !tbaa !64
  %139 = call i32 @av_bswap32(i32 noundef %138) #12
  %140 = load i32, ptr %10, align 4, !tbaa !47
  %141 = and i32 %140, 7
  %142 = shl i32 %139, %141
  %143 = lshr i32 %142, 0
  store i32 %143, ptr %11, align 4, !tbaa !47
  %144 = load i32, ptr %13, align 4, !tbaa !47
  %145 = sub nsw i32 0, %144
  store i32 %145, ptr %14, align 4, !tbaa !47
  %146 = load i32, ptr %11, align 4, !tbaa !47
  %147 = load i32, ptr %14, align 4, !tbaa !47
  %148 = sub nsw i32 32, %147
  %149 = lshr i32 %146, %148
  %150 = load i32, ptr %9, align 4, !tbaa !47
  %151 = add i32 %149, %150
  store i32 %151, ptr %15, align 4, !tbaa !47
  %152 = load ptr, ptr %6, align 8, !tbaa !94
  %153 = load i32, ptr %15, align 4, !tbaa !47
  %154 = zext i32 %153 to i64
  %155 = getelementptr inbounds nuw %struct.VLCElem, ptr %152, i64 %154
  %156 = getelementptr inbounds nuw %struct.VLCElem, ptr %155, i32 0, i32 0
  %157 = getelementptr inbounds nuw %struct.anon, ptr %156, i32 0, i32 0
  %158 = load i16, ptr %157, align 2, !tbaa !64
  %159 = sext i16 %158 to i32
  store i32 %159, ptr %9, align 4, !tbaa !47
  %160 = load ptr, ptr %6, align 8, !tbaa !94
  %161 = load i32, ptr %15, align 4, !tbaa !47
  %162 = zext i32 %161 to i64
  %163 = getelementptr inbounds nuw %struct.VLCElem, ptr %160, i64 %162
  %164 = getelementptr inbounds nuw %struct.VLCElem, ptr %163, i32 0, i32 0
  %165 = getelementptr inbounds nuw %struct.anon, ptr %164, i32 0, i32 1
  %166 = load i16, ptr %165, align 2, !tbaa !64
  %167 = sext i16 %166 to i32
  store i32 %167, ptr %13, align 4, !tbaa !47
  br label %168

168:                                              ; preds = %129, %114, %73
  br label %169

169:                                              ; preds = %168, %58, %35
  br label %170

170:                                              ; preds = %169
  %171 = load i32, ptr %13, align 4, !tbaa !47
  %172 = load i32, ptr %11, align 4, !tbaa !47
  %173 = shl i32 %172, %171
  store i32 %173, ptr %11, align 4, !tbaa !47
  %174 = load i32, ptr %12, align 4, !tbaa !47
  %175 = load i32, ptr %10, align 4, !tbaa !47
  %176 = load i32, ptr %13, align 4, !tbaa !47
  %177 = add i32 %175, %176
  %178 = icmp ugt i32 %174, %177
  br i1 %178, label %179, label %183

179:                                              ; preds = %170
  %180 = load i32, ptr %10, align 4, !tbaa !47
  %181 = load i32, ptr %13, align 4, !tbaa !47
  %182 = add i32 %180, %181
  br label %185

183:                                              ; preds = %170
  %184 = load i32, ptr %12, align 4, !tbaa !47
  br label %185

185:                                              ; preds = %183, %179
  %186 = phi i32 [ %182, %179 ], [ %184, %183 ]
  store i32 %186, ptr %10, align 4, !tbaa !47
  br label %187

187:                                              ; preds = %185
  br label %188

188:                                              ; preds = %187
  call void @llvm.lifetime.end.p0(i64 4, ptr %15) #11
  call void @llvm.lifetime.end.p0(i64 4, ptr %14) #11
  call void @llvm.lifetime.end.p0(i64 4, ptr %13) #11
  br label %189

189:                                              ; preds = %188
  br label %190

190:                                              ; preds = %189
  %191 = load i32, ptr %10, align 4, !tbaa !47
  %192 = load ptr, ptr %5, align 8, !tbaa !42
  %193 = getelementptr inbounds nuw %struct.GetBitContext, ptr %192, i32 0, i32 2
  store i32 %191, ptr %193, align 8, !tbaa !61
  %194 = load i32, ptr %9, align 4, !tbaa !47
  call void @llvm.lifetime.end.p0(i64 4, ptr %12) #11
  call void @llvm.lifetime.end.p0(i64 4, ptr %11) #11
  call void @llvm.lifetime.end.p0(i64 4, ptr %10) #11
  call void @llvm.lifetime.end.p0(i64 4, ptr %9) #11
  ret i32 %194
}

; Function Attrs: nounwind uwtable
define internal i32 @decode_coeffs(ptr noundef %0, ptr noundef %1, i32 noundef %2) #1 {
  %4 = alloca ptr, align 8
  %5 = alloca ptr, align 8
  %6 = alloca i32, align 4
  %7 = alloca i32, align 4
  %8 = alloca i32, align 4
  %9 = alloca i32, align 4
  %10 = alloca i32, align 4
  store ptr %0, ptr %4, align 8, !tbaa !42
  store ptr %1, ptr %5, align 8, !tbaa !65
  store i32 %2, ptr %6, align 4, !tbaa !47
  %11 = load ptr, ptr %5, align 8, !tbaa !65
  %12 = load i32, ptr %6, align 4, !tbaa !47
  %13 = sext i32 %12 to i64
  %14 = mul i64 %13, 2
  call void @llvm.memset.p0.i64(ptr align 2 %11, i8 0, i64 %14, i1 false)
  call void @llvm.lifetime.start.p0(i64 4, ptr %7) #11
  store i32 0, ptr %7, align 4, !tbaa !47
  br label %15

15:                                               ; preds = %79, %3
  %16 = load i32, ptr %7, align 4, !tbaa !47
  %17 = load i32, ptr %6, align 4, !tbaa !47
  %18 = icmp slt i32 %16, %17
  br i1 %18, label %20, label %19

19:                                               ; preds = %15
  call void @llvm.lifetime.end.p0(i64 4, ptr %7) #11
  br label %80

20:                                               ; preds = %15
  call void @llvm.lifetime.start.p0(i64 4, ptr %8) #11
  %21 = load ptr, ptr %4, align 8, !tbaa !42
  %22 = call i32 @get_vlc2(ptr noundef %21, ptr noundef @cbp_tab, i32 noundef 9, i32 noundef 1)
  store i32 %22, ptr %8, align 4, !tbaa !47
  %23 = load i32, ptr %8, align 4, !tbaa !47
  %24 = icmp sgt i32 %23, 0
  br i1 %24, label %25, label %65

25:                                               ; preds = %20
  call void @llvm.lifetime.start.p0(i64 4, ptr %9) #11
  %26 = load ptr, ptr %4, align 8, !tbaa !42
  %27 = load i32, ptr %8, align 4, !tbaa !47
  %28 = call i32 @get_bits(ptr noundef %26, i32 noundef %27)
  store i32 %28, ptr %9, align 4, !tbaa !47
  %29 = load i32, ptr %9, align 4, !tbaa !47
  %30 = load i32, ptr %8, align 4, !tbaa !47
  %31 = shl i32 1, %30
  %32 = sdiv i32 %31, 2
  %33 = icmp slt i32 %29, %32
  br i1 %33, label %34, label %45

34:                                               ; preds = %25
  %35 = load i32, ptr %8, align 4, !tbaa !47
  %36 = sub nsw i32 %35, 1
  %37 = shl i32 1, %36
  %38 = load i32, ptr %9, align 4, !tbaa !47
  %39 = load i32, ptr %8, align 4, !tbaa !47
  %40 = shl i32 1, %39
  %41 = sub nsw i32 %40, 1
  %42 = ashr i32 %41, 1
  %43 = and i32 %38, %42
  %44 = add nsw i32 %37, %43
  store i32 %44, ptr %9, align 4, !tbaa !47
  br label %57

45:                                               ; preds = %25
  %46 = load i32, ptr %8, align 4, !tbaa !47
  %47 = sub nsw i32 %46, 1
  %48 = shl i32 1, %47
  %49 = sub nsw i32 0, %48
  %50 = load i32, ptr %9, align 4, !tbaa !47
  %51 = load i32, ptr %8, align 4, !tbaa !47
  %52 = shl i32 1, %51
  %53 = sub nsw i32 %52, 1
  %54 = ashr i32 %53, 1
  %55 = and i32 %50, %54
  %56 = sub nsw i32 %49, %55
  store i32 %56, ptr %9, align 4, !tbaa !47
  br label %57

57:                                               ; preds = %45, %34
  %58 = load i32, ptr %9, align 4, !tbaa !47
  %59 = trunc i32 %58 to i16
  %60 = load ptr, ptr %5, align 8, !tbaa !65
  %61 = load i32, ptr %7, align 4, !tbaa !47
  %62 = add nsw i32 %61, 1
  store i32 %62, ptr %7, align 4, !tbaa !47
  %63 = sext i32 %61 to i64
  %64 = getelementptr inbounds i16, ptr %60, i64 %63
  store i16 %59, ptr %64, align 2, !tbaa !66
  call void @llvm.lifetime.end.p0(i64 4, ptr %9) #11
  br label %79

65:                                               ; preds = %20
  call void @llvm.lifetime.start.p0(i64 4, ptr %10) #11
  %66 = load ptr, ptr %4, align 8, !tbaa !42
  %67 = call i32 @get_bits1(ptr noundef %66)
  store i32 %67, ptr %10, align 4, !tbaa !47
  %68 = load ptr, ptr %4, align 8, !tbaa !42
  %69 = load i32, ptr %10, align 4, !tbaa !47
  %70 = mul nsw i32 %69, 3
  %71 = add nsw i32 3, %70
  %72 = call i32 @get_bits(ptr noundef %68, i32 noundef %71)
  %73 = add i32 %72, 1
  %74 = load i32, ptr %10, align 4, !tbaa !47
  %75 = mul nsw i32 %74, 8
  %76 = add i32 %73, %75
  %77 = load i32, ptr %7, align 4, !tbaa !47
  %78 = add i32 %77, %76
  store i32 %78, ptr %7, align 4, !tbaa !47
  call void @llvm.lifetime.end.p0(i64 4, ptr %10) #11
  br label %79

79:                                               ; preds = %65, %57
  call void @llvm.lifetime.end.p0(i64 4, ptr %8) #11
  br label %15, !llvm.loop !85

80:                                               ; preds = %19
  ret i32 0
}