; Function Attrs: nofree norecurse nosync nounwind memory(read, argmem: readwrite, inaccessiblemem: none) uwtable
define internal fastcc void @decode_coeffs(ptr noundef captures(none) %0, ptr noundef writeonly captures(none) %1, i32 noundef %2) unnamed_addr #5 {
  %4 = sext i32 %2 to i64
  %5 = shl nsw i64 %4, 1
  tail call void @llvm.memset.p0.i64(ptr align 2 %1, i8 0, i64 %5, i1 false)
  %6 = icmp sgt i32 %2, 0
  br i1 %6, label %.lr.ph, label %._crit_edge

.lr.ph:                                           ; preds = %3
  %7 = load ptr, ptr %0, align 8, !tbaa !37
  %8 = getelementptr inbounds nuw i8, ptr %0, i64 16
  %9 = getelementptr inbounds nuw i8, ptr %0, i64 24
  %10 = load i32, ptr %9, align 8, !tbaa !39
  %.promoted = load i32, ptr %8, align 8, !tbaa !41
  br label %11

._crit_edge:                                      ; preds = %83, %3
  ret void

11:                                               ; preds = %.lr.ph, %83
  %12 = phi i32 [ %.promoted, %.lr.ph ], [ %84, %83 ]
  %.027 = phi i32 [ 0, %.lr.ph ], [ %.1, %83 ]
  %13 = lshr i32 %12, 3
  %14 = zext nneg i32 %13 to i64
  %15 = getelementptr inbounds nuw i8, ptr %7, i64 %14
  %16 = load i32, ptr %15, align 1, !tbaa !42
  %17 = tail call i32 @llvm.bswap.i32(i32 %16)
  %18 = and i32 %12, 7
  %19 = shl i32 %17, %18
  %20 = lshr i32 %19, 23
  %21 = zext nneg i32 %20 to i64
  %22 = getelementptr inbounds nuw %struct.VLCElem, ptr @cbp_tab, i64 %21
  %23 = getelementptr inbounds nuw i8, ptr %22, i64 2
  %24 = load i16, ptr %23, align 2, !tbaa !42
  %25 = sext i16 %24 to i32
  %26 = load i16, ptr %22, align 4, !tbaa !42
  %27 = add i32 %12, %25
  %28 = tail call i32 @llvm.umin.i32(i32 %10, i32 %27)
  store i32 %28, ptr %8, align 8, !tbaa !41
  %29 = icmp sgt i16 %26, 0
  %30 = lshr i32 %28, 3
  %31 = zext nneg i32 %30 to i64
  %32 = getelementptr inbounds nuw i8, ptr %7, i64 %31
  br i1 %29, label %33, label %57

33:                                               ; preds = %11
  %34 = zext nneg i16 %26 to i32
  %35 = load i32, ptr %32, align 1, !tbaa !42
  %36 = tail call i32 @llvm.bswap.i32(i32 %35)
  %37 = and i32 %28, 7
  %38 = shl i32 %36, %37
  %39 = sub nsw i32 32, %34
  %40 = lshr i32 %38, %39
  %41 = add i32 %28, %34
  %42 = tail call i32 @llvm.umin.i32(i32 %10, i32 %41)
  store i32 %42, ptr %8, align 8, !tbaa !41
  %43 = shl nuw i32 1, %34
  %44 = sdiv i32 %43, 2
  %45 = icmp slt i32 %40, %44
  %46 = add nsw i32 %34, -1
  %47 = add nsw i32 %43, -1
  %48 = lshr i32 %47, 1
  %49 = and i32 %40, %48
  %50 = shl nuw i32 1, %46
  %51 = add nuw nsw i32 %49, %50
  %.neg = shl nsw i32 -1, %46
  %52 = sub nuw nsw i32 %.neg, %49
  %.023 = select i1 %45, i32 %51, i32 %52
  %53 = trunc i32 %.023 to i16
  %54 = add nsw i32 %.027, 1
  %55 = sext i32 %.027 to i64
  %56 = getelementptr inbounds i16, ptr %1, i64 %55
  store i16 %53, ptr %56, align 2, !tbaa !48
  br label %83

57:                                               ; preds = %11
  %58 = load i8, ptr %32, align 1, !tbaa !42
  %59 = icmp slt i32 %28, %10
  %60 = zext i1 %59 to i32
  %spec.select.i = add i32 %28, %60
  %61 = zext i8 %58 to i32
  %62 = and i32 %28, 7
  %63 = shl nuw nsw i32 %61, %62
  %64 = lshr i32 %63, 7
  store i32 %spec.select.i, ptr %8, align 8, !tbaa !41
  %65 = and i32 %64, 1
  %66 = mul nuw nsw i32 %65, 3
  %67 = lshr i32 %spec.select.i, 3
  %68 = zext nneg i32 %67 to i64
  %69 = getelementptr inbounds nuw i8, ptr %7, i64 %68
  %70 = load i32, ptr %69, align 1, !tbaa !42
  %71 = tail call i32 @llvm.bswap.i32(i32 %70)
  %72 = and i32 %spec.select.i, 7
  %73 = shl i32 %71, %72
  %74 = sub nuw nsw i32 29, %66
  %75 = lshr i32 %73, %74
  %76 = add i32 %spec.select.i, 3
  %77 = add i32 %76, %66
  %78 = tail call i32 @llvm.umin.i32(i32 %10, i32 %77)
  store i32 %78, ptr %8, align 8, !tbaa !41
  %79 = shl nuw nsw i32 %65, 3
  %80 = add nsw i32 %.027, 1
  %81 = add i32 %80, %79
  %82 = add i32 %81, %75
  br label %83

83:                                               ; preds = %57, %33
  %84 = phi i32 [ %42, %33 ], [ %78, %57 ]
  %.1 = phi i32 [ %54, %33 ], [ %82, %57 ]
  %85 = icmp slt i32 %.1, %2
  br i1 %85, label %11, label %._crit_edge, !llvm.loop !88
}